; Function Attrs: mustprogress nofree nounwind uwtable
define internal fastcc void @_ZL8pr_shellP8_IO_FILEN3gmx8ArrayRefIK7t_shellEE(ptr nocapture noundef %0, ptr readonly %1, ptr readnone %2) unnamed_addr #12 {
  %4 = tail call i64 @fwrite(ptr nonnull @.str.25, i64 11, i64 1, ptr %0)
  %5 = tail call i32 (ptr, ptr, ...) @fprintf(ptr noundef %0, ptr noundef nonnull @.str.26, ptr noundef nonnull @.str.27, ptr noundef nonnull @.str.28, ptr noundef nonnull @.str.29, ptr noundef nonnull @.str.30, ptr noundef nonnull @.str.31) #23
  %.not21 = icmp eq ptr %1, %2
  br i1 %.not21, label %._crit_edge, label %.lr.ph

.lr.ph:                                           ; preds = %3, %27
  %.sroa.0.022 = phi ptr [ %28, %27 ], [ %1, %3 ]
  %6 = getelementptr inbounds i8, ptr %.sroa.0.022, i64 4
  %7 = load i32, ptr %6, align 4
  %8 = getelementptr inbounds i8, ptr %.sroa.0.022, i64 24
  %9 = load float, ptr %8, align 4
  %10 = fpext float %9 to double
  %11 = fdiv double 1.000000e+00, %10
  %12 = getelementptr inbounds i8, ptr %.sroa.0.022, i64 8
  %13 = load i32, ptr %12, align 4
  %14 = tail call i32 (ptr, ptr, ...) @fprintf(ptr noundef %0, ptr noundef nonnull @.str.32, i32 noundef %7, double noundef %11, i32 noundef %13) #23
  %15 = load i32, ptr %.sroa.0.022, align 4
  switch i32 %15, label %26 [
    i32 2, label %16
    i32 3, label %20
  ]

16:                                               ; preds = %.lr.ph
  %17 = getelementptr inbounds i8, ptr %.sroa.0.022, i64 12
  %18 = load i32, ptr %17, align 4
  %19 = tail call i32 (ptr, ptr, ...) @fprintf(ptr noundef %0, ptr noundef nonnull @.str.33, i32 noundef %18) #23
  br label %27

20:                                               ; preds = %.lr.ph
  %21 = getelementptr inbounds i8, ptr %.sroa.0.022, i64 12
  %22 = load i32, ptr %21, align 4
  %23 = getelementptr inbounds i8, ptr %.sroa.0.022, i64 16
  %24 = load i32, ptr %23, align 4
  %25 = tail call i32 (ptr, ptr, ...) @fprintf(ptr noundef %0, ptr noundef nonnull @.str.34, i32 noundef %22, i32 noundef %24) #23
  br label %27

26:                                               ; preds = %.lr.ph
  %fputc = tail call i32 @fputc(i32 10, ptr %0)
  br label %27

27:                                               ; preds = %16, %26, %20
  %28 = getelementptr inbounds i8, ptr %.sroa.0.022, i64 64
  %.not = icmp eq ptr %28, %2
  br i1 %.not, label %._crit_edge, label %.lr.ph

._crit_edge:                                      ; preds = %27, %3
  ret void
}